target datalayout = "e-m:e-p270:32:32-p271:32:32-p272:64:64-i64:64-i128:128-f80:128-n8:16:32:64-S128"
target triple = "x86_64-pc-linux-gnu"

%class.dtTileCache = type { i32, i32, ptr, ptr, ptr, i32, i32, %struct.dtTileCacheParams, ptr, ptr, ptr, ptr, ptr, [64 x %"struct.dtTileCache::ObstacleRequest"], i32, [64 x i32], i32 }
%struct.dtTileCacheParams = type { [3 x float], float, float, i32, i32, float, float, float, float, i32, i32 }
%"struct.dtTileCache::ObstacleRequest" = type { i32, i32 }

; Function Attrs: mustprogress nounwind uwtable
define noundef i32 @_ZN11dtTileCache14removeObstacleEj(ptr noundef nonnull align 8 dereferenceable(912) %0, i32 noundef %1) #2 align 2 {
  %3 = alloca i32, align 4
  %4 = alloca ptr, align 8
  %5 = alloca i32, align 4
  %6 = alloca ptr, align 8
  store ptr %0, ptr %4, align 8
  store i32 %1, ptr %5, align 4
  %7 = load ptr, ptr %4, align 8
  %8 = load i32, ptr %5, align 4
  %9 = icmp ne i32 %8, 0
  br i1 %9, label %11, label %10

10:                                               ; preds = %2
  store i32 1073741824, ptr %3, align 4
  br label %29

11:                                               ; preds = %2
  %12 = getelementptr inbounds %class.dtTileCache, ptr %7, i32 0, i32 14
  %13 = load i32, ptr %12, align 8
  %14 = icmp sge i32 %13, 64
  br i1 %14, label %15, label %16

15:                                               ; preds = %11
  store i32 -2147483632, ptr %3, align 4
  br label %29

16:                                               ; preds = %11
  %17 = getelementptr inbounds %class.dtTileCache, ptr %7, i32 0, i32 13
  %18 = getelementptr inbounds %class.dtTileCache, ptr %7, i32 0, i32 14
  %19 = load i32, ptr %18, align 8
  %20 = add nsw i32 %19, 1
  store i32 %20, ptr %18, align 8
  %21 = sext i32 %19 to i64
  %22 = getelementptr inbounds [64 x %"struct.dtTileCache::ObstacleRequest"], ptr %17, i64 0, i64 %21
  store ptr %22, ptr %6, align 8
  %23 = load ptr, ptr %6, align 8
  call void @llvm.memset.p0.i64(ptr align 4 %23, i8 0, i64 8, i1 false)
  %24 = load ptr, ptr %6, align 8
  %25 = getelementptr inbounds %"struct.dtTileCache::ObstacleRequest", ptr %24, i32 0, i32 0
  store i32 1, ptr %25, align 4
  %26 = load i32, ptr %5, align 4
  %27 = load ptr, ptr %6, align 8
  %28 = getelementptr inbounds %"struct.dtTileCache::ObstacleRequest", ptr %27, i32 0, i32 1
  store i32 %26, ptr %28, align 4
  store i32 1073741824, ptr %3, align 4
  br label %29

29:                                               ; preds = %16, %15, %10
  %30 = load i32, ptr %3, align 4
  ret i32 %30
}