; Function Attrs: mustprogress nofree norecurse nosync nounwind willreturn memory(argmem: readwrite) uwtable
define noundef range(i32 1073741824, -2147483631) i32 @_ZN11dtTileCache14removeObstacleEj(ptr noundef nonnull align 8 captures(none) dereferenceable(912) %0, i32 noundef %1) local_unnamed_addr #19 align 2 {
  %.not = icmp eq i32 %1, 0
  br i1 %.not, label %13, label %3

3:                                                ; preds = %2
  %4 = getelementptr inbounds nuw i8, ptr %0, i64 648
  %5 = load i32, ptr %4, align 8
  %6 = icmp sgt i32 %5, 63
  br i1 %6, label %13, label %7

7:                                                ; preds = %3
  %8 = getelementptr inbounds nuw i8, ptr %0, i64 136
  %9 = add nsw i32 %5, 1
  store i32 %9, ptr %4, align 8
  %10 = sext i32 %5 to i64
  %11 = getelementptr inbounds [64 x %"struct.dtTileCache::ObstacleRequest"], ptr %8, i64 0, i64 %10
  store i64 1, ptr %11, align 8
  %12 = getelementptr inbounds nuw i8, ptr %11, i64 4
  store i32 %1, ptr %12, align 4
  br label %13

13:                                               ; preds = %3, %2, %7
  %.0 = phi i32 [ 1073741824, %7 ], [ 1073741824, %2 ], [ -2147483632, %3 ]
  ret i32 %.0
}